; Function Attrs: mustprogress uwtable
define noundef signext i8 @_ZNK6icu_778Calendar9isWeekendEdR10UErrorCode(ptr noundef nonnull align 8 dereferenceable(192) %0, double noundef %1, ptr noundef nonnull align 4 captures(none) dereferenceable(4) %2) unnamed_addr #1 align 2 {
  %4 = load i32, ptr %2, align 4, !tbaa !13
  %5 = icmp slt i32 %4, 1
  br i1 %5, label %6, label %49

6:                                                ; preds = %3
  %7 = load ptr, ptr %0, align 8, !tbaa !15
  %8 = getelementptr inbounds nuw i8, ptr %7, i64 24
  %9 = load ptr, ptr %8, align 8
  %10 = tail call noundef ptr %9(ptr noundef nonnull align 8 dereferenceable(192) %0)
  %11 = icmp eq ptr %10, null
  br i1 %11, label %12, label %13

12:                                               ; preds = %6
  store i32 7, ptr %2, align 4, !tbaa !13
  br label %49

13:                                               ; preds = %6
  %14 = load i32, ptr %2, align 4, !tbaa !13
  %15 = icmp slt i32 %14, 1
  br i1 %15, label %16, label %_ZN6icu_778Calendar7setTimeEdR10UErrorCode.exit.thread

16:                                               ; preds = %13
  %17 = fcmp ogt double %1, 0x43846A3EDDF8CD80
  br i1 %17, label %18, label %23

18:                                               ; preds = %16
  %19 = getelementptr inbounds nuw i8, ptr %10, i64 152
  %20 = load i8, ptr %19, align 8
  %21 = and i8 %20, 16
  %.not12.i.i = icmp eq i8 %21, 0
  br i1 %.not12.i.i, label %22, label %_ZN6icu_778Calendar7setTimeEdR10UErrorCode.exit

22:                                               ; preds = %18
  store i32 1, ptr %2, align 4, !tbaa !13
  br label %_ZN6icu_778Calendar7setTimeEdR10UErrorCode.exit.thread

23:                                               ; preds = %16
  %24 = fcmp olt double %1, 0xC384763B62073280
  br i1 %24, label %25, label %30

25:                                               ; preds = %23
  %26 = getelementptr inbounds nuw i8, ptr %10, i64 152
  %27 = load i8, ptr %26, align 8
  %28 = and i8 %27, 16
  %.not11.i.i = icmp eq i8 %28, 0
  br i1 %.not11.i.i, label %29, label %_ZN6icu_778Calendar7setTimeEdR10UErrorCode.exit

29:                                               ; preds = %25
  store i32 1, ptr %2, align 4, !tbaa !13
  br label %_ZN6icu_778Calendar7setTimeEdR10UErrorCode.exit.thread

30:                                               ; preds = %23
  %31 = tail call signext i8 @uprv_isNaN_77(double noundef %1)
  %.not10.i.i = icmp eq i8 %31, 0
  br i1 %.not10.i.i, label %._crit_edge.i.i, label %32

._crit_edge.i.i:                                  ; preds = %30
  %.phi.trans.insert.i.i = getelementptr inbounds nuw i8, ptr %10, i64 152
  %.pre.i.i = load i8, ptr %.phi.trans.insert.i.i, align 8
  br label %_ZN6icu_778Calendar7setTimeEdR10UErrorCode.exit

32:                                               ; preds = %30
  store i32 1, ptr %2, align 4, !tbaa !13
  br label %_ZN6icu_778Calendar7setTimeEdR10UErrorCode.exit.thread

_ZN6icu_778Calendar7setTimeEdR10UErrorCode.exit:  ; preds = %18, %25, %._crit_edge.i.i
  %33 = phi i8 [ %.pre.i.i, %._crit_edge.i.i ], [ %20, %18 ], [ %27, %25 ]
  %.0.i.i = phi double [ %1, %._crit_edge.i.i ], [ 0x43846A3EDDF8CD80, %18 ], [ 0xC384763B62073280, %25 ]
  %34 = getelementptr inbounds nuw i8, ptr %10, i64 136
  store double %.0.i.i, ptr %34, align 8, !tbaa !53
  %35 = getelementptr inbounds nuw i8, ptr %10, i64 152
  %36 = and i8 %33, -16
  %37 = or disjoint i8 %36, 9
  store i8 %37, ptr %35, align 8
  %38 = getelementptr inbounds nuw i8, ptr %10, i64 8
  %39 = getelementptr inbounds nuw i8, ptr %10, i64 128
  tail call void @llvm.memset.p0.i64(ptr noundef nonnull align 8 dereferenceable(120) %38, i8 0, i64 120, i1 false)
  store i8 2, ptr %39, align 8, !tbaa !40
  %.pre = load i32, ptr %2, align 4, !tbaa !13
  %40 = icmp sgt i32 %.pre, 0
  br i1 %40, label %_ZN6icu_778Calendar7setTimeEdR10UErrorCode.exit.thread, label %41

41:                                               ; preds = %_ZN6icu_778Calendar7setTimeEdR10UErrorCode.exit
  %42 = load ptr, ptr %10, align 8, !tbaa !15
  %43 = getelementptr inbounds nuw i8, ptr %42, i64 216
  %44 = load ptr, ptr %43, align 8
  %45 = tail call noundef signext i8 %44(ptr noundef nonnull align 8 dereferenceable(192) %10)
  br label %_ZN6icu_778Calendar7setTimeEdR10UErrorCode.exit.thread

_ZN6icu_778Calendar7setTimeEdR10UErrorCode.exit.thread: ; preds = %32, %29, %22, %13, %_ZN6icu_778Calendar7setTimeEdR10UErrorCode.exit, %41
  %.0 = phi i8 [ %45, %41 ], [ 0, %_ZN6icu_778Calendar7setTimeEdR10UErrorCode.exit ], [ 0, %13 ], [ 0, %22 ], [ 0, %29 ], [ 0, %32 ]
  %46 = load ptr, ptr %10, align 8, !tbaa !15
  %47 = getelementptr inbounds nuw i8, ptr %46, i64 8
  %48 = load ptr, ptr %47, align 8
  tail call void %48(ptr noundef nonnull align 8 dereferenceable(192) %10) #25
  br label %49

49:                                               ; preds = %12, %_ZN6icu_778Calendar7setTimeEdR10UErrorCode.exit.thread, %3
  %.011 = phi i8 [ 0, %3 ], [ 0, %12 ], [ %.0, %_ZN6icu_778Calendar7setTimeEdR10UErrorCode.exit.thread ]
  ret i8 %.011
}